; Function Attrs: mustprogress uwtable
define noundef i32 @uregex_start_75(ptr noundef readonly %regexp2, i32 noundef %groupNum, ptr noundef %status) local_unnamed_addr #5 {
entry:
  %0 = load i32, ptr %status, align 4
  %cmp.i.i.i = icmp slt i32 %0, 1
  br i1 %cmp.i.i.i, label %if.end.i.i, label %uregex_start64_75.exit

if.end.i.i:                                       ; preds = %entry
  %cmp.i.i = icmp eq ptr %regexp2, null
  br i1 %cmp.i.i, label %return.sink.split.i.i, label %lor.lhs.false.i.i

lor.lhs.false.i.i:                                ; preds = %if.end.i.i
  %1 = load i32, ptr %regexp2, align 8
  %cmp1.not.i.i = icmp eq i32 %1, 1919252592
  br i1 %cmp1.not.i.i, label %if.end3.i.i, label %return.sink.split.i.i

if.end3.i.i:                                      ; preds = %lor.lhs.false.i.i
  %fText.i.i = getelementptr inbounds i8, ptr %regexp2, i64 48
  %2 = load ptr, ptr %fText.i.i, align 8
  %cmp5.i.i = icmp eq ptr %2, null
  br i1 %cmp5.i.i, label %land.lhs.true6.i.i, label %if.end.i

land.lhs.true6.i.i:                               ; preds = %if.end3.i.i
  %fOwnsText.i.i = getelementptr inbounds i8, ptr %regexp2, i64 60
  %3 = load i8, ptr %fOwnsText.i.i, align 4
  %tobool7.not.i.i = icmp eq i8 %3, 0
  br i1 %tobool7.not.i.i, label %return.sink.split.i.i, label %if.end.i

return.sink.split.i.i:                            ; preds = %land.lhs.true6.i.i, %lor.lhs.false.i.i, %if.end.i.i
  %.sink.i.i = phi i32 [ 1, %lor.lhs.false.i.i ], [ 1, %if.end.i.i ], [ 66306, %land.lhs.true6.i.i ]
  store i32 %.sink.i.i, ptr %status, align 4
  br label %uregex_start64_75.exit

if.end.i:                                         ; preds = %land.lhs.true6.i.i, %if.end3.i.i
  %fMatcher.i = getelementptr inbounds i8, ptr %regexp2, i64 40
  %4 = load ptr, ptr %fMatcher.i, align 8
  %call1.i = tail call noundef i64 @_ZNK6icu_7512RegexMatcher7start64EiR10UErrorCode(ptr noundef nonnull align 8 dereferenceable(336) %4, i32 noundef %groupNum, ptr noundef nonnull align 4 dereferenceable(4) %status)
  %5 = trunc i64 %call1.i to i32
  br label %uregex_start64_75.exit

uregex_start64_75.exit:                           ; preds = %entry, %return.sink.split.i.i, %if.end.i
  %retval.0.i = phi i32 [ %5, %if.end.i ], [ 0, %entry ], [ 0, %return.sink.split.i.i ]
  ret i32 %retval.0.i
}